; Function Attrs: mustprogress nofree norecurse nosync nounwind willreturn memory(argmem: readwrite) uwtable
define range(i64 -60, 1) i64 @ZSTD_DCtx_setMaxWindowSize(ptr noundef captures(none) %0, i64 noundef %1) local_unnamed_addr #7 {
  %3 = getelementptr inbounds nuw i8, ptr %0, i64 30236
  %4 = load i32, ptr %3, align 4, !tbaa !127
  %.not = icmp eq i32 %4, 0
  br i1 %.not, label %5, label %9

5:                                                ; preds = %2
  %6 = add i64 %1, -2147483649
  %or.cond = icmp ult i64 %6, -2147482625
  br i1 %or.cond, label %9, label %7

7:                                                ; preds = %5
  %8 = getelementptr inbounds nuw i8, ptr %0, i64 30264
  store i64 %1, ptr %8, align 8, !tbaa !35
  br label %9

9:                                                ; preds = %5, %2, %7
  %.0 = phi i64 [ 0, %7 ], [ -60, %2 ], [ -42, %5 ]
  ret i64 %.0
}